target datalayout = "e-m:e-p270:32:32-p271:32:32-p272:64:64-i64:64-i128:128-f80:128-n8:16:32:64-S128"
target triple = "x86_64-pc-linux-gnu"

%struct.RArray = type { %struct.RBasic, %union.anon }
%struct.RBasic = type { i64, i64 }
%union.anon = type { %struct.anon }
%struct.anon = type { i64, %union.anon.0, ptr }
%union.anon.0 = type { i64 }

; Function Attrs: inlinehint nounwind sspstrong willreturn memory(read) uwtable
define internal i64 @RB_FL_TEST_RAW(i64 noundef %0, i64 noundef %1) #5 {
  %3 = alloca i64, align 8
  %4 = alloca i64, align 8
  store i64 %0, ptr %3, align 8, !tbaa !14
  store i64 %1, ptr %4, align 8, !tbaa !14
  %5 = load i64, ptr %3, align 8, !tbaa !14
  %6 = inttoptr i64 %5 to ptr
  %7 = getelementptr inbounds nuw %struct.RBasic, ptr %6, i32 0, i32 0
  %8 = load i64, ptr %7, align 8, !tbaa !88
  %9 = load i64, ptr %4, align 8, !tbaa !14
  %10 = and i64 %8, %9
  ret i64 %10
}

; Function Attrs: inlinehint nounwind sspstrong willreturn memory(none) uwtable
define internal i64 @rbimpl_fix2long_by_idiv(i64 noundef %0) #6 {
  %2 = alloca i64, align 8
  %3 = alloca i64, align 8
  %4 = alloca i64, align 8
  %5 = alloca i64, align 8
  store i64 %0, ptr %2, align 8, !tbaa !14
  call void @llvm.lifetime.start.p0(i64 8, ptr %3) #22
  %6 = load i64, ptr %2, align 8, !tbaa !14
  %7 = sub i64 %6, 1
  store i64 %7, ptr %3, align 8, !tbaa !14
  call void @llvm.lifetime.start.p0(i64 8, ptr %4) #22
  %8 = load i64, ptr %3, align 8, !tbaa !14
  %9 = sdiv i64 %8, 2
  store i64 %9, ptr %4, align 8, !tbaa !14
  call void @llvm.lifetime.start.p0(i64 8, ptr %5) #22
  %10 = load i64, ptr %4, align 8, !tbaa !14
  store i64 %10, ptr %5, align 8, !tbaa !14
  %11 = load i64, ptr %5, align 8, !tbaa !14
  call void @llvm.lifetime.end.p0(i64 8, ptr %5) #22
  call void @llvm.lifetime.end.p0(i64 8, ptr %4) #22
  call void @llvm.lifetime.end.p0(i64 8, ptr %3) #22
  ret i64 %11
}

; Function Attrs: inlinehint nounwind sspstrong willreturn memory(none) uwtable
define internal i64 @rbimpl_fix2long_by_shift(i64 noundef %0) #6 {
  %2 = alloca i64, align 8
  %3 = alloca i64, align 8
  %4 = alloca i64, align 8
  %5 = alloca i64, align 8
  store i64 %0, ptr %2, align 8, !tbaa !14
  call void @llvm.lifetime.start.p0(i64 8, ptr %3) #22
  %6 = load i64, ptr %2, align 8, !tbaa !14
  store i64 %6, ptr %3, align 8, !tbaa !14
  call void @llvm.lifetime.start.p0(i64 8, ptr %4) #22
  %7 = load i64, ptr %3, align 8, !tbaa !14
  %8 = ashr i64 %7, 1
  store i64 %8, ptr %4, align 8, !tbaa !14
  call void @llvm.lifetime.start.p0(i64 8, ptr %5) #22
  %9 = load i64, ptr %4, align 8, !tbaa !14
  store i64 %9, ptr %5, align 8, !tbaa !14
  %10 = load i64, ptr %5, align 8, !tbaa !14
  call void @llvm.lifetime.end.p0(i64 8, ptr %5) #22
  call void @llvm.lifetime.end.p0(i64 8, ptr %4) #22
  call void @llvm.lifetime.end.p0(i64 8, ptr %3) #22
  ret i64 %10
}

; Function Attrs: inlinehint nounwind sspstrong willreturn memory(none) uwtable
define internal zeroext i1 @rbimpl_right_shift_is_arithmetic_p() #6 {
  ret i1 true
}

; Function Attrs: inlinehint nounwind sspstrong willreturn memory(read) uwtable
define internal ptr @rb_array_const_ptr(i64 noundef %0) #5 {
  %2 = alloca ptr, align 8
  %3 = alloca i64, align 8
  store i64 %0, ptr %3, align 8, !tbaa !14
  %4 = load i64, ptr %3, align 8, !tbaa !14
  %5 = call zeroext i1 @RB_FL_ANY_RAW(i64 noundef %4, i64 noundef 8192) #24
  br i1 %5, label %6, label %11

6:                                                ; preds = %1
  %7 = load i64, ptr %3, align 8, !tbaa !14
  %8 = inttoptr i64 %7 to ptr
  %9 = getelementptr inbounds nuw %struct.RArray, ptr %8, i32 0, i32 1
  %10 = getelementptr inbounds [1 x i64], ptr %9, i64 0, i64 0
  store ptr %10, ptr %2, align 8
  br label %17

11:                                               ; preds = %1
  %12 = load i64, ptr %3, align 8, !tbaa !14
  %13 = inttoptr i64 %12 to ptr
  %14 = getelementptr inbounds nuw %struct.RArray, ptr %13, i32 0, i32 1
  %15 = getelementptr inbounds nuw %struct.anon, ptr %14, i32 0, i32 2
  %16 = load ptr, ptr %15, align 8, !tbaa !31
  store ptr %16, ptr %2, align 8
  br label %17

17:                                               ; preds = %11, %6
  %18 = load ptr, ptr %2, align 8
  ret ptr %18
}

; Function Attrs: inlinehint nounwind sspstrong willreturn memory(read) uwtable
define internal i64 @RARRAY_EMBED_LEN(i64 noundef %0) #5 {
  %2 = alloca i64, align 8
  %3 = alloca i64, align 8
  store i64 %0, ptr %2, align 8, !tbaa !14
  call void @llvm.lifetime.start.p0(i64 8, ptr %3) #22
  %4 = load i64, ptr %2, align 8, !tbaa !14
  %5 = inttoptr i64 %4 to ptr
  %6 = getelementptr inbounds nuw %struct.RBasic, ptr %5, i32 0, i32 0
  %7 = load i64, ptr %6, align 8, !tbaa !88
  store i64 %7, ptr %3, align 8, !tbaa !14
  %8 = load i64, ptr %3, align 8, !tbaa !14
  %9 = and i64 %8, 4161536
  store i64 %9, ptr %3, align 8, !tbaa !14
  %10 = load i64, ptr %3, align 8, !tbaa !14
  %11 = lshr i64 %10, 15
  store i64 %11, ptr %3, align 8, !tbaa !14
  %12 = load i64, ptr %3, align 8, !tbaa !14
  call void @llvm.lifetime.end.p0(i64 8, ptr %3) #22
  ret i64 %12
}

; Function Attrs: inlinehint nounwind sspstrong willreturn memory(read) uwtable
define internal zeroext i1 @RB_FL_ANY_RAW(i64 noundef %0, i64 noundef %1) #5 {
  %3 = alloca i64, align 8
  %4 = alloca i64, align 8
  store i64 %0, ptr %3, align 8, !tbaa !14
  store i64 %1, ptr %4, align 8, !tbaa !14
  %5 = load i64, ptr %3, align 8, !tbaa !14
  %6 = load i64, ptr %4, align 8, !tbaa !14
  %7 = call i64 @RB_FL_TEST_RAW(i64 noundef %5, i64 noundef %6) #24
  %8 = icmp ne i64 %7, 0
  ret i1 %8
}

; Function Attrs: inlinehint nounwind sspstrong uwtable
define internal void @RBASIC_SET_CLASS_RAW(i64 noundef %0, i64 noundef %1) #3 {
  %3 = alloca i64, align 8
  %4 = alloca i64, align 8
  %5 = alloca ptr, align 8
  store i64 %0, ptr %3, align 8, !tbaa !14
  store i64 %1, ptr %4, align 8, !tbaa !14
  call void @llvm.lifetime.start.p0(i64 8, ptr %5) #22
  %6 = load i64, ptr %3, align 8, !tbaa !14
  %7 = inttoptr i64 %6 to ptr
  %8 = getelementptr inbounds nuw %struct.RBasic, ptr %7, i32 0, i32 1
  store ptr %8, ptr %5, align 8, !tbaa !11
  %9 = load i64, ptr %4, align 8, !tbaa !14
  %10 = load ptr, ptr %5, align 8, !tbaa !11
  store i64 %9, ptr %10, align 8, !tbaa !14
  call void @llvm.lifetime.end.p0(i64 8, ptr %5) #22
  ret void
}

; Function Attrs: inlinehint nounwind sspstrong willreturn memory(none) uwtable
define internal i64 @rb_fix2long(i64 noundef %0) #6 {
  %2 = alloca i64, align 8
  %3 = alloca i64, align 8
  store i64 %0, ptr %3, align 8, !tbaa !14
  %4 = call zeroext i1 @rbimpl_right_shift_is_arithmetic_p() #25
  br i1 %4, label %5, label %8

5:                                                ; preds = %1
  %6 = load i64, ptr %3, align 8, !tbaa !14
  %7 = call i64 @rbimpl_fix2long_by_shift(i64 noundef %6) #25
  store i64 %7, ptr %2, align 8
  br label %11

8:                                                ; preds = %1
  %9 = load i64, ptr %3, align 8, !tbaa !14
  %10 = call i64 @rbimpl_fix2long_by_idiv(i64 noundef %9) #25
  store i64 %10, ptr %2, align 8
  br label %11

11:                                               ; preds = %8, %5
  %12 = load i64, ptr %2, align 8
  ret i64 %12
}

; Function Attrs: inlinehint nounwind sspstrong willreturn memory(none) uwtable
define internal zeroext i1 @RB_FIXNUM_P(i64 noundef %0) #6 {
  %2 = alloca i64, align 8
  store i64 %0, ptr %2, align 8, !tbaa !14
  %3 = load i64, ptr %2, align 8, !tbaa !14
  %4 = and i64 %3, 1
  %5 = icmp ne i64 %4, 0
  ret i1 %5
}

; Function Attrs: nounwind sspstrong uwtable
define internal i64 @enum_yield_array(i64 noundef %0) #0 {
  %2 = alloca i64, align 8
  %3 = alloca i64, align 8
  %4 = alloca i64, align 8
  %5 = alloca i32, align 4
  store i64 %0, ptr %3, align 8, !tbaa !14
  call void @llvm.lifetime.start.p0(i64 8, ptr %4) #22
  %6 = load i64, ptr %3, align 8, !tbaa !14
  %7 = call i64 @rb_array_len(i64 noundef %6) #24
  store i64 %7, ptr %4, align 8, !tbaa !14
  %8 = load i64, ptr %4, align 8, !tbaa !14
  %9 = icmp sgt i64 %8, 1
  br i1 %9, label %10, label %13

10:                                               ; preds = %1
  %11 = load i64, ptr %3, align 8, !tbaa !14
  %12 = call i64 @rb_yield_force_blockarg(i64 noundef %11)
  store i64 %12, ptr %2, align 8
  store i32 1, ptr %5, align 4
  br label %22

13:                                               ; preds = %1
  %14 = load i64, ptr %4, align 8, !tbaa !14
  %15 = icmp eq i64 %14, 1
  br i1 %15, label %16, label %20

16:                                               ; preds = %13
  %17 = load i64, ptr %3, align 8, !tbaa !14
  %18 = call i64 @RARRAY_AREF(i64 noundef %17, i64 noundef 0) #24
  %19 = call i64 @rb_yield(i64 noundef %18)
  store i64 %19, ptr %2, align 8
  store i32 1, ptr %5, align 4
  br label %22

20:                                               ; preds = %13
  %21 = call i64 @rb_yield_values2(i32 noundef 0, ptr noundef null)
  store i64 %21, ptr %2, align 8
  store i32 1, ptr %5, align 4
  br label %22

22:                                               ; preds = %20, %16, %10
  call void @llvm.lifetime.end.p0(i64 8, ptr %4) #22
  %23 = load i64, ptr %2, align 8
  ret i64 %23
}

; Function Attrs: inlinehint nounwind sspstrong willreturn memory(read) uwtable
define internal i64 @RARRAY_AREF(i64 noundef %0, i64 noundef %1) #5 {
  %3 = alloca i64, align 8
  %4 = alloca i64, align 8
  %5 = alloca i64, align 8
  store i64 %0, ptr %3, align 8, !tbaa !14
  store i64 %1, ptr %4, align 8, !tbaa !14
  call void @llvm.lifetime.start.p0(i64 8, ptr %5) #22
  %6 = load i64, ptr %3, align 8, !tbaa !14
  %7 = call ptr @rb_array_const_ptr(i64 noundef %6) #24
  %8 = load i64, ptr %4, align 8, !tbaa !14
  %9 = getelementptr i64, ptr %7, i64 %8
  %10 = load i64, ptr %9, align 8, !tbaa !14
  store i64 %10, ptr %5, align 8, !tbaa !14
  %11 = load i64, ptr %5, align 8, !tbaa !14
  call void @llvm.lifetime.end.p0(i64 8, ptr %5) #22
  ret i64 %11
}

; Function Attrs: inlinehint nounwind sspstrong willreturn memory(read) uwtable
define internal i64 @rb_array_len(i64 noundef %0) #5 {
  %2 = alloca i64, align 8
  %3 = alloca i64, align 8
  store i64 %0, ptr %3, align 8, !tbaa !14
  %4 = load i64, ptr %3, align 8, !tbaa !14
  %5 = call zeroext i1 @RB_FL_ANY_RAW(i64 noundef %4, i64 noundef 8192) #24
  br i1 %5, label %6, label %9

6:                                                ; preds = %1
  %7 = load i64, ptr %3, align 8, !tbaa !14
  %8 = call i64 @RARRAY_EMBED_LEN(i64 noundef %7) #24
  store i64 %8, ptr %2, align 8
  br label %15

9:                                                ; preds = %1
  %10 = load i64, ptr %3, align 8, !tbaa !14
  %11 = inttoptr i64 %10 to ptr
  %12 = getelementptr inbounds nuw %struct.RArray, ptr %11, i32 0, i32 1
  %13 = getelementptr inbounds nuw %struct.anon, ptr %12, i32 0, i32 0
  %14 = load i64, ptr %13, align 8, !tbaa !31
  store i64 %14, ptr %2, align 8
  br label %15

15:                                               ; preds = %9, %6
  %16 = load i64, ptr %2, align 8
  ret i64 %16
}

; Function Attrs: inlinehint nounwind sspstrong uwtable
define internal void @RBASIC_CLEAR_CLASS(i64 noundef %0) #3 {
  %2 = alloca i64, align 8
  store i64 %0, ptr %2, align 8, !tbaa !14
  %3 = load i64, ptr %2, align 8, !tbaa !14
  call void @RBASIC_SET_CLASS_RAW(i64 noundef %3, i64 noundef 0)
  ret void
}

; Function Attrs: inlinehint nounwind sspstrong uwtable
define internal i64 @rb_num2long_inline(i64 noundef %0) #3 {
  %2 = alloca i64, align 8
  %3 = alloca i64, align 8
  store i64 %0, ptr %3, align 8, !tbaa !14
  %4 = load i64, ptr %3, align 8, !tbaa !14
  %5 = call zeroext i1 @RB_FIXNUM_P(i64 noundef %4) #25
  br i1 %5, label %6, label %9

6:                                                ; preds = %1
  %7 = load i64, ptr %3, align 8, !tbaa !14
  %8 = call i64 @rb_fix2long(i64 noundef %7) #25
  store i64 %8, ptr %2, align 8
  br label %12

9:                                                ; preds = %1
  %10 = load i64, ptr %3, align 8, !tbaa !14
  %11 = call i64 @rb_num2long(i64 noundef %10)
  store i64 %11, ptr %2, align 8
  br label %12

12:                                               ; preds = %9, %6
  %13 = load i64, ptr %2, align 8
  ret i64 %13
}

; Function Attrs: inlinehint nounwind sspstrong willreturn memory(none) uwtable
define internal zeroext i1 @RB_NIL_P(i64 noundef %0) #6 {
  %2 = alloca i64, align 8
  store i64 %0, ptr %2, align 8, !tbaa !14
  %3 = load i64, ptr %2, align 8, !tbaa !14
  %4 = icmp eq i64 %3, 4
  ret i1 %4
}

; Function Attrs: inlinehint nounwind sspstrong uwtable
define internal i32 @rb_check_arity(i32 noundef %0, i32 noundef %1, i32 noundef %2) #3 {
  %4 = alloca i32, align 4
  %5 = alloca i32, align 4
  %6 = alloca i32, align 4
  store i32 %0, ptr %4, align 4, !tbaa !7
  store i32 %1, ptr %5, align 4, !tbaa !7
  store i32 %2, ptr %6, align 4, !tbaa !7
  %7 = load i32, ptr %4, align 4, !tbaa !7
  %8 = load i32, ptr %5, align 4, !tbaa !7
  %9 = icmp slt i32 %7, %8
  br i1 %9, label %17, label %10

10:                                               ; preds = %3
  %11 = load i32, ptr %6, align 4, !tbaa !7
  %12 = icmp ne i32 %11, -1
  br i1 %12, label %13, label %21

13:                                               ; preds = %10
  %14 = load i32, ptr %4, align 4, !tbaa !7
  %15 = load i32, ptr %6, align 4, !tbaa !7
  %16 = icmp sgt i32 %14, %15
  br i1 %16, label %17, label %21

17:                                               ; preds = %13, %3
  %18 = load i32, ptr %4, align 4, !tbaa !7
  %19 = load i32, ptr %5, align 4, !tbaa !7
  %20 = load i32, ptr %6, align 4, !tbaa !7
  call void @rb_error_arity(i32 noundef %18, i32 noundef %19, i32 noundef %20) #23
  unreachable

21:                                               ; preds = %13, %10
  %22 = load i32, ptr %4, align 4, !tbaa !7
  ret i32 %22
}

; Function Attrs: nounwind sspstrong uwtable
define internal i64 @enum_cycle(i32 noundef %0, ptr noundef %1, i64 noundef %2) #0 {
  %4 = alloca i64, align 8
  %5 = alloca i32, align 4
  %6 = alloca ptr, align 8
  %7 = alloca i64, align 8
  %8 = alloca i64, align 8
  %9 = alloca i64, align 8
  %10 = alloca i64, align 8
  %11 = alloca i64, align 8
  %12 = alloca i64, align 8
  %13 = alloca i64, align 8
  %14 = alloca i32, align 4
  store i32 %0, ptr %5, align 4, !tbaa !7
  store ptr %1, ptr %6, align 8, !tbaa !11
  store i64 %2, ptr %7, align 8, !tbaa !14
  call void @llvm.lifetime.start.p0(i64 8, ptr %8) #22
  call void @llvm.lifetime.start.p0(i64 8, ptr %9) #22
  store i64 4, ptr %9, align 8, !tbaa !14
  call void @llvm.lifetime.start.p0(i64 8, ptr %10) #22
  call void @llvm.lifetime.start.p0(i64 8, ptr %11) #22
  call void @llvm.lifetime.start.p0(i64 8, ptr %12) #22
  %15 = load i32, ptr %5, align 4, !tbaa !7
  %16 = call i32 @rb_check_arity(i32 noundef %15, i32 noundef 0, i32 noundef 1)
  br label %17

17:                                               ; preds = %3
  %18 = call i32 @rb_block_given_p()
  %19 = icmp ne i32 %18, 0
  br i1 %19, label %28, label %20

20:                                               ; preds = %17
  %21 = load i64, ptr %7, align 8, !tbaa !14
  %22 = call i64 @rb_frame_this_func()
  %23 = call i64 @rb_id2sym(i64 noundef %22)
  store i64 %23, ptr %13, align 8, !tbaa !14
  %24 = load i64, ptr %13, align 8, !tbaa !14
  %25 = load i32, ptr %5, align 4, !tbaa !7
  %26 = load ptr, ptr %6, align 8, !tbaa !11
  %27 = call i64 @rb_enumeratorize_with_size(i64 noundef %21, i64 noundef %24, i32 noundef %25, ptr noundef %26, ptr noundef @enum_cycle_size)
  store i64 %27, ptr %4, align 8
  store i32 1, ptr %14, align 4
  br label %82

28:                                               ; preds = %17
  br label %29

29:                                               ; preds = %28
  br label %30

30:                                               ; preds = %29
  %31 = load i32, ptr %5, align 4, !tbaa !7
  %32 = icmp ne i32 %31, 0
  br i1 %32, label %33, label %38

33:                                               ; preds = %30
  %34 = load ptr, ptr %6, align 8, !tbaa !11
  %35 = getelementptr i64, ptr %34, i64 0
  %36 = load i64, ptr %35, align 8, !tbaa !14
  store i64 %36, ptr %9, align 8, !tbaa !14
  %37 = call zeroext i1 @RB_NIL_P(i64 noundef %36) #25
  br i1 %37, label %38, label %39

38:                                               ; preds = %33, %30
  store i64 -1, ptr %10, align 8, !tbaa !14
  br label %46

39:                                               ; preds = %33
  %40 = load i64, ptr %9, align 8, !tbaa !14
  %41 = call i64 @rb_num2long_inline(i64 noundef %40)
  store i64 %41, ptr %10, align 8, !tbaa !14
  %42 = load i64, ptr %10, align 8, !tbaa !14
  %43 = icmp sle i64 %42, 0
  br i1 %43, label %44, label %45

44:                                               ; preds = %39
  store i64 4, ptr %4, align 8
  store i32 1, ptr %14, align 4
  br label %82

45:                                               ; preds = %39
  br label %46

46:                                               ; preds = %45, %38
  %47 = call i64 @rb_ary_new()
  store i64 %47, ptr %8, align 8, !tbaa !14
  %48 = load i64, ptr %8, align 8, !tbaa !14
  call void @RBASIC_CLEAR_CLASS(i64 noundef %48)
  %49 = load i64, ptr %7, align 8, !tbaa !14
  %50 = load i64, ptr %8, align 8, !tbaa !14
  %51 = call i64 @rb_block_call(i64 noundef %49, i64 noundef 3073, i32 noundef 0, ptr noundef null, ptr noundef @cycle_i, i64 noundef %50)
  %52 = load i64, ptr %8, align 8, !tbaa !14
  %53 = call i64 @rb_array_len(i64 noundef %52) #24
  store i64 %53, ptr %12, align 8, !tbaa !14
  %54 = load i64, ptr %12, align 8, !tbaa !14
  %55 = icmp eq i64 %54, 0
  br i1 %55, label %56, label %57

56:                                               ; preds = %46
  store i64 4, ptr %4, align 8
  store i32 1, ptr %14, align 4
  br label %82

57:                                               ; preds = %46
  br label %58

58:                                               ; preds = %80, %57
  %59 = load i64, ptr %10, align 8, !tbaa !14
  %60 = icmp slt i64 %59, 0
  br i1 %60, label %65, label %61

61:                                               ; preds = %58
  %62 = load i64, ptr %10, align 8, !tbaa !14
  %63 = add i64 %62, -1
  store i64 %63, ptr %10, align 8, !tbaa !14
  %64 = icmp slt i64 0, %63
  br label %65

65:                                               ; preds = %61, %58
  %66 = phi i1 [ true, %58 ], [ %64, %61 ]
  br i1 %66, label %67, label %81

67:                                               ; preds = %65
  store i64 0, ptr %11, align 8, !tbaa !14
  br label %68

68:                                               ; preds = %77, %67
  %69 = load i64, ptr %11, align 8, !tbaa !14
  %70 = load i64, ptr %12, align 8, !tbaa !14
  %71 = icmp slt i64 %69, %70
  br i1 %71, label %72, label %80

72:                                               ; preds = %68
  %73 = load i64, ptr %8, align 8, !tbaa !14
  %74 = load i64, ptr %11, align 8, !tbaa !14
  %75 = call i64 @RARRAY_AREF(i64 noundef %73, i64 noundef %74) #24
  %76 = call i64 @enum_yield_array(i64 noundef %75)
  br label %77

77:                                               ; preds = %72
  %78 = load i64, ptr %11, align 8, !tbaa !14
  %79 = add i64 %78, 1
  store i64 %79, ptr %11, align 8, !tbaa !14
  br label %68, !llvm.loop !75

80:                                               ; preds = %68
  br label %58, !llvm.loop !76

81:                                               ; preds = %65
  store i64 4, ptr %4, align 8
  store i32 1, ptr %14, align 4
  br label %82

82:                                               ; preds = %81, %56, %44, %20
  call void @llvm.lifetime.end.p0(i64 8, ptr %12) #22
  call void @llvm.lifetime.end.p0(i64 8, ptr %11) #22
  call void @llvm.lifetime.end.p0(i64 8, ptr %10) #22
  call void @llvm.lifetime.end.p0(i64 8, ptr %9) #22
  call void @llvm.lifetime.end.p0(i64 8, ptr %8) #22
  %83 = load i64, ptr %4, align 8
  ret i64 %83
}