; Function Attrs: nounwind sspstrong uwtable
define internal i64 @enum_cycle(i32 noundef %0, ptr noundef %1, i64 noundef %2) #0 {
  %or.cond.i = icmp ugt i32 %0, 1
  br i1 %or.cond.i, label %4, label %rb_check_arity.exit

4:                                                ; preds = %3
  tail call void @rb_error_arity(i32 noundef %0, i32 noundef 0, i32 noundef 1) #15
  unreachable

rb_check_arity.exit:                              ; preds = %3
  %5 = tail call i32 @rb_block_given_p() #14
  %.not = icmp eq i32 %5, 0
  br i1 %.not, label %6, label %10

6:                                                ; preds = %rb_check_arity.exit
  %7 = tail call i64 @rb_frame_this_func() #14
  %8 = tail call i64 @rb_id2sym(i64 noundef %7) #14
  %9 = tail call i64 @rb_enumeratorize_with_size(i64 noundef %2, i64 noundef %8, i32 noundef %0, ptr noundef %1, ptr noundef nonnull @enum_cycle_size) #14
  br label %.loopexit31

10:                                               ; preds = %rb_check_arity.exit
  %.not25 = icmp eq i32 %0, 0
  br i1 %.not25, label %21, label %11

11:                                               ; preds = %10
  %12 = load i64, ptr %1, align 8, !tbaa !7
  %13 = icmp eq i64 %12, 4
  br i1 %13, label %21, label %14

14:                                               ; preds = %11
  %15 = and i64 %12, 1
  %.not.i = icmp eq i64 %15, 0
  br i1 %.not.i, label %18, label %16

16:                                               ; preds = %14
  %17 = ashr i64 %12, 1
  br label %rb_num2long_inline.exit

18:                                               ; preds = %14
  %19 = tail call i64 @rb_num2long(i64 noundef %12) #14
  br label %rb_num2long_inline.exit

rb_num2long_inline.exit:                          ; preds = %16, %18
  %.0.i = phi i64 [ %17, %16 ], [ %19, %18 ]
  %20 = icmp slt i64 %.0.i, 1
  br i1 %20, label %.loopexit31, label %21

21:                                               ; preds = %10, %11, %rb_num2long_inline.exit
  %.022 = phi i64 [ %.0.i, %rb_num2long_inline.exit ], [ -1, %11 ], [ -1, %10 ]
  %22 = tail call i64 @rb_ary_new() #14
  %23 = inttoptr i64 %22 to ptr
  %24 = getelementptr inbounds nuw i8, ptr %23, i64 8
  store i64 0, ptr %24, align 8, !tbaa !7
  %25 = tail call i64 @rb_block_call(i64 noundef %2, i64 noundef 3073, i32 noundef 0, ptr noundef null, ptr noundef nonnull @cycle_i, i64 noundef %22) #14
  %26 = load i64, ptr %23, align 8, !tbaa !20
  %27 = and i64 %26, 8192
  %.not.i26 = icmp eq i64 %27, 0
  br i1 %.not.i26, label %31, label %28

28:                                               ; preds = %21
  %29 = lshr i64 %26, 15
  %30 = and i64 %29, 127
  br label %rb_array_len.exit

31:                                               ; preds = %21
  %32 = getelementptr inbounds nuw i8, ptr %23, i64 16
  %33 = load i64, ptr %32, align 8, !tbaa !22
  br label %rb_array_len.exit

rb_array_len.exit:                                ; preds = %28, %31
  %.0.i27 = phi i64 [ %30, %28 ], [ %33, %31 ]
  %.0.i27.fr = freeze i64 %.0.i27
  %34 = icmp eq i64 %.0.i27.fr, 0
  br i1 %34, label %.loopexit31, label %.preheader

.preheader:                                       ; preds = %rb_array_len.exit
  %35 = icmp sgt i64 %.0.i27.fr, 0
  %36 = getelementptr inbounds nuw i8, ptr %23, i64 16
  %37 = getelementptr inbounds nuw i8, ptr %23, i64 32
  br i1 %35, label %.preheader.split.us, label %.loopexit31

.preheader.split.us:                              ; preds = %.preheader, %..loopexit_crit_edge.us
  %.1.us = phi i64 [ %.2.us, %..loopexit_crit_edge.us ], [ %.022, %.preheader ]
  %38 = icmp slt i64 %.1.us, 0
  br i1 %38, label %.critedge.us, label %39

39:                                               ; preds = %.preheader.split.us
  %40 = add nsw i64 %.1.us, -1
  %41 = icmp samesign ugt i64 %.1.us, 1
  br i1 %41, label %.critedge.us, label %.loopexit31

.critedge.us:                                     ; preds = %39, %.preheader.split.us
  %.2.us = phi i64 [ -1, %.preheader.split.us ], [ %40, %39 ]
  br label %42

42:                                               ; preds = %.critedge.us, %enum_yield_array.exit.us
  %.02132.us = phi i64 [ 0, %.critedge.us ], [ %73, %enum_yield_array.exit.us ]
  %43 = load i64, ptr %23, align 8, !tbaa !20
  %44 = and i64 %43, 8192
  %.not.i.i.us = icmp eq i64 %44, 0
  br i1 %.not.i.i.us, label %45, label %RARRAY_AREF.exit.us

45:                                               ; preds = %42
  %46 = load ptr, ptr %37, align 8, !tbaa !22
  br label %RARRAY_AREF.exit.us

RARRAY_AREF.exit.us:                              ; preds = %42, %45
  %.0.i.i.us = phi ptr [ %46, %45 ], [ %36, %42 ]
  %47 = getelementptr i64, ptr %.0.i.i.us, i64 %.02132.us
  %48 = load i64, ptr %47, align 8, !tbaa !7
  %49 = inttoptr i64 %48 to ptr
  %50 = load i64, ptr %49, align 8, !tbaa !20
  %51 = and i64 %50, 8192
  %.not.i.i28.us = icmp eq i64 %51, 0
  br i1 %.not.i.i28.us, label %55, label %52

52:                                               ; preds = %RARRAY_AREF.exit.us
  %53 = lshr i64 %50, 15
  %54 = and i64 %53, 127
  br label %rb_array_len.exit.i.us

55:                                               ; preds = %RARRAY_AREF.exit.us
  %56 = getelementptr inbounds nuw i8, ptr %49, i64 16
  %57 = load i64, ptr %56, align 8, !tbaa !22
  br label %rb_array_len.exit.i.us

rb_array_len.exit.i.us:                           ; preds = %55, %52
  %.0.i.i29.us = phi i64 [ %54, %52 ], [ %57, %55 ]
  %58 = icmp sgt i64 %.0.i.i29.us, 1
  br i1 %58, label %71, label %59

59:                                               ; preds = %rb_array_len.exit.i.us
  %60 = icmp eq i64 %.0.i.i29.us, 1
  br i1 %60, label %63, label %61

61:                                               ; preds = %59
  %62 = tail call i64 @rb_yield_values2(i32 noundef 0, ptr noundef null) #14
  br label %enum_yield_array.exit.us

63:                                               ; preds = %59
  br i1 %.not.i.i28.us, label %66, label %64

64:                                               ; preds = %63
  %65 = getelementptr inbounds nuw i8, ptr %49, i64 16
  br label %RARRAY_AREF.exit.i.us

66:                                               ; preds = %63
  %67 = getelementptr inbounds nuw i8, ptr %49, i64 32
  %68 = load ptr, ptr %67, align 8, !tbaa !22
  br label %RARRAY_AREF.exit.i.us

RARRAY_AREF.exit.i.us:                            ; preds = %66, %64
  %.0.i.i.i.us = phi ptr [ %65, %64 ], [ %68, %66 ]
  %69 = load i64, ptr %.0.i.i.i.us, align 8, !tbaa !7
  %70 = tail call i64 @rb_yield(i64 noundef %69) #14
  br label %enum_yield_array.exit.us

71:                                               ; preds = %rb_array_len.exit.i.us
  %72 = tail call i64 @rb_yield_force_blockarg(i64 noundef %48) #14
  br label %enum_yield_array.exit.us

enum_yield_array.exit.us:                         ; preds = %71, %RARRAY_AREF.exit.i.us, %61
  %73 = add nuw nsw i64 %.02132.us, 1
  %exitcond.not = icmp eq i64 %73, %.0.i27.fr
  br i1 %exitcond.not, label %..loopexit_crit_edge.us, label %42, !llvm.loop !90

..loopexit_crit_edge.us:                          ; preds = %enum_yield_array.exit.us
  br label %.preheader.split.us, !llvm.loop !91

.loopexit31:                                      ; preds = %39, %.preheader, %rb_array_len.exit, %rb_num2long_inline.exit, %6
  %.0 = phi i64 [ %9, %6 ], [ 4, %rb_num2long_inline.exit ], [ 4, %rb_array_len.exit ], [ 4, %.preheader ], [ 4, %39 ]
  ret i64 %.0
}